target datalayout = "e-m:e-p270:32:32-p271:32:32-p272:64:64-i64:64-i128:128-f80:128-n8:16:32:64-S128"
target triple = "x86_64-pc-linux-gnu"

%struct.tls_buffer_st = type { ptr, i64, i64, i64, i64, i32, i32 }
%struct.tls_rl_record_st = type { i32, i32, i64, i64, i64, ptr, ptr, ptr, i16, [8 x i8] }
%struct.ossl_record_layer_st = type { ptr, ptr, i32, i32, i32, i32, i32, ptr, i16, ptr, ptr, ptr, i64, i32, [33 x %struct.tls_buffer_st], i64, i64, %struct.tls_buffer_st, [32 x %struct.tls_rl_record_st], i64, i64, i64, i32, ptr, i64, [8 x i8], i32, i32, i64, i32, ptr, ptr, i64, ptr, ptr, i32, i32, i32, i64, i64, i64, [64 x i8], i32, i32, i32, ptr, ptr, i32, i32, i64, ptr, ptr, %struct.dtls_bitmap_st, %struct.dtls_bitmap_st, i32, ptr, ptr, ptr, ptr, ptr, i64, ptr }
%struct.dtls_bitmap_st = type { i64, [8 x i8] }

@.str = private unnamed_addr constant [43 x i8] c"../openssl/ssl/record/methods/tls_common.c\00", align 1
@__func__.tls13_common_post_process_record = private unnamed_addr constant [33 x i8] c"tls13_common_post_process_record\00", align 1

; Function Attrs: nounwind uwtable
define i32 @tls13_common_post_process_record(ptr noundef %0, ptr noundef %1) #0 {
  %3 = alloca i32, align 4
  %4 = alloca ptr, align 8
  %5 = alloca ptr, align 8
  store ptr %0, ptr %4, align 8, !tbaa !16
  store ptr %1, ptr %5, align 8, !tbaa !13
  %6 = load ptr, ptr %5, align 8, !tbaa !13
  %7 = getelementptr inbounds nuw %struct.tls_rl_record_st, ptr %6, i32 0, i32 1
  %8 = load i32, ptr %7, align 4, !tbaa !79
  %9 = icmp ne i32 %8, 23
  br i1 %9, label %10, label %22

10:                                               ; preds = %2
  %11 = load ptr, ptr %5, align 8, !tbaa !13
  %12 = getelementptr inbounds nuw %struct.tls_rl_record_st, ptr %11, i32 0, i32 1
  %13 = load i32, ptr %12, align 4, !tbaa !79
  %14 = icmp ne i32 %13, 21
  br i1 %14, label %15, label %22

15:                                               ; preds = %10
  %16 = load ptr, ptr %5, align 8, !tbaa !13
  %17 = getelementptr inbounds nuw %struct.tls_rl_record_st, ptr %16, i32 0, i32 1
  %18 = load i32, ptr %17, align 4, !tbaa !79
  %19 = icmp ne i32 %18, 22
  br i1 %19, label %20, label %22

20:                                               ; preds = %15
  call void @ERR_new()
  call void @ERR_set_debug(ptr noundef @.str, i32 noundef 1092, ptr noundef @__func__.tls13_common_post_process_record)
  %21 = load ptr, ptr %4, align 8, !tbaa !16
  call void (ptr, i32, i32, ptr, ...) @ossl_rlayer_fatal(ptr noundef %21, i32 noundef 10, i32 noundef 443, ptr noundef null)
  store i32 0, ptr %3, align 4
  br label %57

22:                                               ; preds = %15, %10, %2
  %23 = load ptr, ptr %4, align 8, !tbaa !16
  %24 = getelementptr inbounds nuw %struct.ossl_record_layer_st, ptr %23, i32 0, i32 57
  %25 = load ptr, ptr %24, align 8, !tbaa !83
  %26 = icmp ne ptr %25, null
  br i1 %26, label %27, label %39

27:                                               ; preds = %22
  %28 = load ptr, ptr %4, align 8, !tbaa !16
  %29 = getelementptr inbounds nuw %struct.ossl_record_layer_st, ptr %28, i32 0, i32 57
  %30 = load ptr, ptr %29, align 8, !tbaa !83
  %31 = load ptr, ptr %4, align 8, !tbaa !16
  %32 = getelementptr inbounds nuw %struct.ossl_record_layer_st, ptr %31, i32 0, i32 3
  %33 = load i32, ptr %32, align 4, !tbaa !44
  %34 = load ptr, ptr %5, align 8, !tbaa !13
  %35 = getelementptr inbounds nuw %struct.tls_rl_record_st, ptr %34, i32 0, i32 1
  %36 = load ptr, ptr %4, align 8, !tbaa !16
  %37 = getelementptr inbounds nuw %struct.ossl_record_layer_st, ptr %36, i32 0, i32 55
  %38 = load ptr, ptr %37, align 8, !tbaa !53
  call void %30(i32 noundef 0, i32 noundef %33, i32 noundef 257, ptr noundef %35, i64 noundef 1, ptr noundef %38)
  br label %39

39:                                               ; preds = %27, %22
  %40 = load ptr, ptr %5, align 8, !tbaa !13
  %41 = getelementptr inbounds nuw %struct.tls_rl_record_st, ptr %40, i32 0, i32 1
  %42 = load i32, ptr %41, align 4, !tbaa !79
  %43 = icmp eq i32 %42, 22
  br i1 %43, label %49, label %44

44:                                               ; preds = %39
  %45 = load ptr, ptr %5, align 8, !tbaa !13
  %46 = getelementptr inbounds nuw %struct.tls_rl_record_st, ptr %45, i32 0, i32 1
  %47 = load i32, ptr %46, align 4, !tbaa !79
  %48 = icmp eq i32 %47, 21
  br i1 %48, label %49, label %56

49:                                               ; preds = %44, %39
  %50 = load ptr, ptr %5, align 8, !tbaa !13
  %51 = getelementptr inbounds nuw %struct.tls_rl_record_st, ptr %50, i32 0, i32 2
  %52 = load i64, ptr %51, align 8, !tbaa !82
  %53 = icmp eq i64 %52, 0
  br i1 %53, label %54, label %56

54:                                               ; preds = %49
  call void @ERR_new()
  call void @ERR_set_debug(ptr noundef @.str, i32 noundef 1106, ptr noundef @__func__.tls13_common_post_process_record)
  %55 = load ptr, ptr %4, align 8, !tbaa !16
  call void (ptr, i32, i32, ptr, ...) @ossl_rlayer_fatal(ptr noundef %55, i32 noundef 10, i32 noundef 271, ptr noundef null)
  store i32 0, ptr %3, align 4
  br label %57

56:                                               ; preds = %49, %44
  store i32 1, ptr %3, align 4
  br label %57

57:                                               ; preds = %56, %54, %20
  %58 = load i32, ptr %3, align 4
  ret i32 %58
}