; Function Attrs: nounwind uwtable
define range(i32 0, 2) i32 @tls13_common_post_process_record(ptr noundef captures(none) %0, ptr noundef %1) local_unnamed_addr #0 {
  %3 = getelementptr inbounds nuw i8, ptr %1, i64 4
  %4 = load i32, ptr %3, align 4, !tbaa !62
  %.off = add i32 %4, -21
  %switch = icmp ult i32 %.off, 3
  br i1 %switch, label %5, label %.sink.split

5:                                                ; preds = %2
  %6 = getelementptr inbounds nuw i8, ptr %0, i64 4392
  %7 = load ptr, ptr %6, align 8, !tbaa !66
  %.not18 = icmp eq ptr %7, null
  br i1 %.not18, label %13, label %8

8:                                                ; preds = %5
  %9 = getelementptr inbounds nuw i8, ptr %0, i64 20
  %10 = load i32, ptr %9, align 4, !tbaa !31
  %11 = getelementptr inbounds nuw i8, ptr %0, i64 4376
  %12 = load ptr, ptr %11, align 8, !tbaa !36
  tail call void %7(i32 noundef 0, i32 noundef %10, i32 noundef 257, ptr noundef nonnull %3, i64 noundef 1, ptr noundef %12) #13
  %.pre = load i32, ptr %3, align 4, !tbaa !62
  %.pre21 = add i32 %.pre, -21
  br label %13

13:                                               ; preds = %8, %5
  %.off19.pre-phi = phi i32 [ %.pre21, %8 ], [ %.off, %5 ]
  %switch20 = icmp ult i32 %.off19.pre-phi, 2
  br i1 %switch20, label %14, label %18

14:                                               ; preds = %13
  %15 = getelementptr inbounds nuw i8, ptr %1, i64 8
  %16 = load i64, ptr %15, align 8, !tbaa !65
  %17 = icmp eq i64 %16, 0
  br i1 %17, label %.sink.split, label %18

.sink.split:                                      ; preds = %14, %2
  %.sink22 = phi i32 [ 1092, %2 ], [ 1106, %14 ]
  %.sink = phi i32 [ 443, %2 ], [ 271, %14 ]
  tail call void @ERR_new() #13
  tail call void @ERR_set_debug(ptr noundef nonnull @.str, i32 noundef %.sink22, ptr noundef nonnull @__func__.tls13_common_post_process_record) #13
  tail call void (ptr, i32, i32, ptr, ...) @ossl_rlayer_fatal(ptr noundef %0, i32 noundef 10, i32 noundef %.sink, ptr noundef null)
  br label %18

18:                                               ; preds = %.sink.split, %13, %14
  %.0 = phi i32 [ 1, %13 ], [ 1, %14 ], [ 0, %.sink.split ]
  ret i32 %.0
}